target datalayout = "e-m:e-p270:32:32-p271:32:32-p272:64:64-i64:64-i128:128-f80:128-n8:16:32:64-S128"
target triple = "x86_64-pc-linux-gnu"

@H5_init_g = external global i8, align 1
@H5_libterm_g = external global i8, align 1
@.str = private unnamed_addr constant [102 x i8] c"generated/home/dtcxzyw/WorkSpace/Projects/compilers/llvm-opt-benchmark/bench/hdf5/hdf5/src/H5system.c\00", align 1
@H5E_INTERNAL_g = external global i64, align 8
@__func__.H5_build_extpath = private unnamed_addr constant [17 x i8] c"H5_build_extpath\00", align 1
@H5E_NOSPACE_g = external global i64, align 8
@.str.2 = private unnamed_addr constant [25 x i8] c"memory allocation failed\00", align 1
@H5E_BADVALUE_g = external global i64, align 8
@.str.3 = private unnamed_addr constant [19 x i8] c"cwd length is zero\00", align 1
@.str.4 = private unnamed_addr constant [2 x i8] c"/\00", align 1

; Function Attrs: nounwind uwtable
define i32 @H5_build_extpath(ptr noundef %0, ptr noundef %1) #0 {
  %3 = alloca i32, align 4
  %4 = alloca ptr, align 8
  %5 = alloca ptr, align 8
  %6 = alloca ptr, align 8
  %7 = alloca ptr, align 8
  %8 = alloca ptr, align 8
  %9 = alloca i32, align 4
  %10 = alloca i8, align 1
  %11 = alloca ptr, align 8
  %12 = alloca i64, align 8
  %13 = alloca i64, align 8
  %14 = alloca i64, align 8
  %15 = alloca i32, align 4
  %16 = alloca ptr, align 8
  store ptr %0, ptr %4, align 8, !tbaa !26
  store ptr %1, ptr %5, align 8, !tbaa !27
  call void @llvm.lifetime.start.p0(i64 8, ptr %6) #9
  store ptr null, ptr %6, align 8, !tbaa !26
  call void @llvm.lifetime.start.p0(i64 8, ptr %7) #9
  store ptr null, ptr %7, align 8, !tbaa !26
  call void @llvm.lifetime.start.p0(i64 8, ptr %8) #9
  store ptr null, ptr %8, align 8, !tbaa !26
  call void @llvm.lifetime.start.p0(i64 4, ptr %9) #9
  store i32 0, ptr %9, align 4, !tbaa !3
  call void @llvm.lifetime.start.p0(i64 1, ptr %10) #9
  store i8 0, ptr %10, align 1, !tbaa !19
  %17 = load i8, ptr @H5_init_g, align 1, !tbaa !19, !range !21, !noundef !22
  %18 = trunc i8 %17 to i1
  br i1 %18, label %23, label %19

19:                                               ; preds = %2
  %20 = load i8, ptr @H5_libterm_g, align 1, !tbaa !19, !range !21, !noundef !22
  %21 = trunc i8 %20 to i1
  %22 = xor i1 %21, true
  br label %23

23:                                               ; preds = %19, %2
  %24 = phi i1 [ true, %2 ], [ %22, %19 ]
  %25 = xor i1 %24, true
  %26 = xor i1 %25, true
  %27 = zext i1 %26 to i32
  %28 = sext i32 %27 to i64
  %29 = call i64 @llvm.expect.i64(i64 %28, i64 1)
  %30 = icmp ne i64 %29, 0
  br i1 %30, label %31, label %233

31:                                               ; preds = %23
  %32 = load ptr, ptr %5, align 8, !tbaa !27
  store ptr null, ptr %32, align 8, !tbaa !26
  %33 = load ptr, ptr %4, align 8, !tbaa !26
  %34 = load i8, ptr %33, align 1, !tbaa !29
  %35 = sext i8 %34 to i32
  %36 = icmp eq i32 %35, 47
  br i1 %36, label %37, label %61

37:                                               ; preds = %31
  %38 = load ptr, ptr %4, align 8, !tbaa !26
  %39 = call noalias ptr @H5MM_strdup(ptr noundef %38)
  store ptr %39, ptr %6, align 8, !tbaa !26
  %40 = icmp eq ptr null, %39
  br i1 %40, label %41, label %60

41:                                               ; preds = %37
  br label %42

42:                                               ; preds = %41
  br label %43

43:                                               ; preds = %42
  br label %44

44:                                               ; preds = %43
  %45 = load i64, ptr @H5E_INTERNAL_g, align 8, !tbaa !18
  %46 = load i64, ptr @H5E_NOSPACE_g, align 8, !tbaa !18
  %47 = call i32 (ptr, ptr, i32, i64, i64, ptr, ...) @H5E_printf_stack(ptr noundef @.str, ptr noundef @__func__.H5_build_extpath, i32 noundef 631, i64 noundef %45, i64 noundef %46, ptr noundef @.str.2)
  br label %48

48:                                               ; preds = %44
  br label %49

49:                                               ; preds = %48
  store i8 1, ptr %10, align 1, !tbaa !19
  %50 = load i8, ptr %10, align 1, !tbaa !19, !range !21, !noundef !22
  %51 = trunc i8 %50 to i1
  %52 = zext i1 %51 to i8
  store i8 %52, ptr %10, align 1, !tbaa !19
  br label %53

53:                                               ; preds = %49
  br label %54

54:                                               ; preds = %53
  br label %55

55:                                               ; preds = %54
  store i32 -1, ptr %9, align 4, !tbaa !3
  br label %220

56:                                               ; No predecessors!
  br label %57

57:                                               ; preds = %56
  br label %58

58:                                               ; preds = %57
  br label %59

59:                                               ; preds = %58
  br label %60

60:                                               ; preds = %59, %37
  br label %209

61:                                               ; preds = %31
  call void @llvm.lifetime.start.p0(i64 8, ptr %11) #9
  call void @llvm.lifetime.start.p0(i64 8, ptr %12) #9
  %62 = call noalias ptr @malloc(i64 noundef 1024) #10
  store ptr %62, ptr %7, align 8, !tbaa !26
  %63 = icmp eq ptr null, %62
  br i1 %63, label %64, label %83

64:                                               ; preds = %61
  br label %65

65:                                               ; preds = %64
  br label %66

66:                                               ; preds = %65
  br label %67

67:                                               ; preds = %66
  %68 = load i64, ptr @H5E_INTERNAL_g, align 8, !tbaa !18
  %69 = load i64, ptr @H5E_NOSPACE_g, align 8, !tbaa !18
  %70 = call i32 (ptr, ptr, i32, i64, i64, ptr, ...) @H5E_printf_stack(ptr noundef @.str, ptr noundef @__func__.H5_build_extpath, i32 noundef 640, i64 noundef %68, i64 noundef %69, ptr noundef @.str.2)
  br label %71

71:                                               ; preds = %67
  br label %72

72:                                               ; preds = %71
  store i8 1, ptr %10, align 1, !tbaa !19
  %73 = load i8, ptr %10, align 1, !tbaa !19, !range !21, !noundef !22
  %74 = trunc i8 %73 to i1
  %75 = zext i1 %74 to i8
  store i8 %75, ptr %10, align 1, !tbaa !19
  br label %76

76:                                               ; preds = %72
  br label %77

77:                                               ; preds = %76
  br label %78

78:                                               ; preds = %77
  store i32 -1, ptr %9, align 4, !tbaa !3
  store i32 10, ptr %15, align 4
  br label %206

79:                                               ; No predecessors!
  br label %80

80:                                               ; preds = %79
  br label %81

81:                                               ; preds = %80
  br label %82

82:                                               ; preds = %81
  br label %83

83:                                               ; preds = %82, %61
  %84 = load ptr, ptr %4, align 8, !tbaa !26
  %85 = call i64 @strlen(ptr noundef %84) #11
  %86 = add i64 %85, 1
  store i64 %86, ptr %12, align 8, !tbaa !18
  %87 = load i64, ptr %12, align 8, !tbaa !18
  %88 = call noalias ptr @malloc(i64 noundef %87) #10
  store ptr %88, ptr %8, align 8, !tbaa !26
  %89 = icmp eq ptr null, %88
  br i1 %89, label %90, label %109

90:                                               ; preds = %83
  br label %91

91:                                               ; preds = %90
  br label %92

92:                                               ; preds = %91
  br label %93

93:                                               ; preds = %92
  %94 = load i64, ptr @H5E_INTERNAL_g, align 8, !tbaa !18
  %95 = load i64, ptr @H5E_NOSPACE_g, align 8, !tbaa !18
  %96 = call i32 (ptr, ptr, i32, i64, i64, ptr, ...) @H5E_printf_stack(ptr noundef @.str, ptr noundef @__func__.H5_build_extpath, i32 noundef 643, i64 noundef %94, i64 noundef %95, ptr noundef @.str.2)
  br label %97

97:                                               ; preds = %93
  br label %98

98:                                               ; preds = %97
  store i8 1, ptr %10, align 1, !tbaa !19
  %99 = load i8, ptr %10, align 1, !tbaa !19, !range !21, !noundef !22
  %100 = trunc i8 %99 to i1
  %101 = zext i1 %100 to i8
  store i8 %101, ptr %10, align 1, !tbaa !19
  br label %102

102:                                              ; preds = %98
  br label %103

103:                                              ; preds = %102
  br label %104

104:                                              ; preds = %103
  store i32 -1, ptr %9, align 4, !tbaa !3
  store i32 10, ptr %15, align 4
  br label %206

105:                                              ; No predecessors!
  br label %106

106:                                              ; preds = %105
  br label %107

107:                                              ; preds = %106
  br label %108

108:                                              ; preds = %107
  br label %109

109:                                              ; preds = %108, %83
  %110 = load ptr, ptr %7, align 8, !tbaa !26
  %111 = call ptr @getcwd(ptr noundef %110, i64 noundef 1024) #9
  store ptr %111, ptr %11, align 8, !tbaa !26
  %112 = load ptr, ptr %8, align 8, !tbaa !26
  %113 = load ptr, ptr %4, align 8, !tbaa !26
  %114 = load i64, ptr %12, align 8, !tbaa !18
  %115 = call ptr @strncpy(ptr noundef %112, ptr noundef %113, i64 noundef %114) #9
  %116 = load ptr, ptr %11, align 8, !tbaa !26
  %117 = icmp ne ptr %116, null
  br i1 %117, label %118, label %205

118:                                              ; preds = %109
  call void @llvm.lifetime.start.p0(i64 8, ptr %13) #9
  call void @llvm.lifetime.start.p0(i64 8, ptr %14) #9
  %119 = load ptr, ptr %7, align 8, !tbaa !26
  %120 = call i64 @strlen(ptr noundef %119) #11
  store i64 %120, ptr %13, align 8, !tbaa !18
  %121 = load i64, ptr %13, align 8, !tbaa !18
  %122 = icmp eq i64 %121, 0
  br i1 %122, label %123, label %142

123:                                              ; preds = %118
  br label %124

124:                                              ; preds = %123
  br label %125

125:                                              ; preds = %124
  br label %126

126:                                              ; preds = %125
  %127 = load i64, ptr @H5E_INTERNAL_g, align 8, !tbaa !18
  %128 = load i64, ptr @H5E_BADVALUE_g, align 8, !tbaa !18
  %129 = call i32 (ptr, ptr, i32, i64, i64, ptr, ...) @H5E_printf_stack(ptr noundef @.str, ptr noundef @__func__.H5_build_extpath, i32 noundef 677, i64 noundef %127, i64 noundef %128, ptr noundef @.str.3)
  br label %130

130:                                              ; preds = %126
  br label %131

131:                                              ; preds = %130
  store i8 1, ptr %10, align 1, !tbaa !19
  %132 = load i8, ptr %10, align 1, !tbaa !19, !range !21, !noundef !22
  %133 = trunc i8 %132 to i1
  %134 = zext i1 %133 to i8
  store i8 %134, ptr %10, align 1, !tbaa !19
  br label %135

135:                                              ; preds = %131
  br label %136

136:                                              ; preds = %135
  br label %137

137:                                              ; preds = %136
  store i32 -1, ptr %9, align 4, !tbaa !3
  store i32 10, ptr %15, align 4
  br label %202

138:                                              ; No predecessors!
  br label %139

139:                                              ; preds = %138
  br label %140

140:                                              ; preds = %139
  br label %141

141:                                              ; preds = %140
  br label %142

142:                                              ; preds = %141, %118
  %143 = load i64, ptr %13, align 8, !tbaa !18
  %144 = load ptr, ptr %8, align 8, !tbaa !26
  %145 = call i64 @strlen(ptr noundef %144) #11
  %146 = add i64 %143, %145
  %147 = add i64 %146, 2
  store i64 %147, ptr %14, align 8, !tbaa !18
  %148 = load i64, ptr %14, align 8, !tbaa !18
  %149 = call noalias ptr @malloc(i64 noundef %148) #10
  store ptr %149, ptr %6, align 8, !tbaa !26
  %150 = icmp eq ptr null, %149
  br i1 %150, label %151, label %170

151:                                              ; preds = %142
  br label %152

152:                                              ; preds = %151
  br label %153

153:                                              ; preds = %152
  br label %154

154:                                              ; preds = %153
  %155 = load i64, ptr @H5E_INTERNAL_g, align 8, !tbaa !18
  %156 = load i64, ptr @H5E_NOSPACE_g, align 8, !tbaa !18
  %157 = call i32 (ptr, ptr, i32, i64, i64, ptr, ...) @H5E_printf_stack(ptr noundef @.str, ptr noundef @__func__.H5_build_extpath, i32 noundef 680, i64 noundef %155, i64 noundef %156, ptr noundef @.str.2)
  br label %158

158:                                              ; preds = %154
  br label %159

159:                                              ; preds = %158
  store i8 1, ptr %10, align 1, !tbaa !19
  %160 = load i8, ptr %10, align 1, !tbaa !19, !range !21, !noundef !22
  %161 = trunc i8 %160 to i1
  %162 = zext i1 %161 to i8
  store i8 %162, ptr %10, align 1, !tbaa !19
  br label %163

163:                                              ; preds = %159
  br label %164

164:                                              ; preds = %163
  br label %165

165:                                              ; preds = %164
  store i32 -1, ptr %9, align 4, !tbaa !3
  store i32 10, ptr %15, align 4
  br label %202

166:                                              ; No predecessors!
  br label %167

167:                                              ; preds = %166
  br label %168

168:                                              ; preds = %167
  br label %169

169:                                              ; preds = %168
  br label %170

170:                                              ; preds = %169, %142
  %171 = load ptr, ptr %6, align 8, !tbaa !26
  %172 = load ptr, ptr %7, align 8, !tbaa !26
  %173 = load i64, ptr %14, align 8, !tbaa !18
  %174 = call ptr @strncpy(ptr noundef %171, ptr noundef %172, i64 noundef %173) #9
  %175 = load ptr, ptr %6, align 8, !tbaa !26
  %176 = load i64, ptr %14, align 8, !tbaa !18
  %177 = sub i64 %176, 1
  %178 = getelementptr inbounds nuw i8, ptr %175, i64 %177
  store i8 0, ptr %178, align 1, !tbaa !29
  %179 = load ptr, ptr %7, align 8, !tbaa !26
  %180 = load i64, ptr %13, align 8, !tbaa !18
  %181 = sub i64 %180, 1
  %182 = getelementptr inbounds nuw i8, ptr %179, i64 %181
  %183 = load i8, ptr %182, align 1, !tbaa !29
  %184 = sext i8 %183 to i32
  %185 = icmp eq i32 %184, 47
  br i1 %185, label %193, label %186

186:                                              ; preds = %170
  %187 = load ptr, ptr %6, align 8, !tbaa !26
  %188 = load i64, ptr %14, align 8, !tbaa !18
  %189 = load i64, ptr %13, align 8, !tbaa !18
  %190 = add i64 %189, 1
  %191 = sub i64 %188, %190
  %192 = call ptr @strncat(ptr noundef %187, ptr noundef @.str.4, i64 noundef %191) #9
  br label %193

193:                                              ; preds = %186, %170
  %194 = load ptr, ptr %6, align 8, !tbaa !26
  %195 = load ptr, ptr %8, align 8, !tbaa !26
  %196 = load i64, ptr %14, align 8, !tbaa !18
  %197 = load i64, ptr %13, align 8, !tbaa !18
  %198 = add i64 %197, 1
  %199 = sub i64 %196, %198
  %200 = sub i64 %199, 1
  %201 = call ptr @strncat(ptr noundef %194, ptr noundef %195, i64 noundef %200) #9
  store i32 0, ptr %15, align 4
  br label %202

202:                                              ; preds = %165, %137, %193
  call void @llvm.lifetime.end.p0(i64 8, ptr %14) #9
  call void @llvm.lifetime.end.p0(i64 8, ptr %13) #9
  %203 = load i32, ptr %15, align 4
  switch i32 %203, label %206 [
    i32 0, label %204
  ]

204:                                              ; preds = %202
  br label %205

205:                                              ; preds = %204, %109
  store i32 0, ptr %15, align 4
  br label %206

206:                                              ; preds = %104, %78, %205, %202
  call void @llvm.lifetime.end.p0(i64 8, ptr %12) #9
  call void @llvm.lifetime.end.p0(i64 8, ptr %11) #9
  %207 = load i32, ptr %15, align 4
  switch i32 %207, label %235 [
    i32 0, label %208
    i32 10, label %220
  ]

208:                                              ; preds = %206
  br label %209

209:                                              ; preds = %208, %60
  %210 = load ptr, ptr %6, align 8, !tbaa !26
  %211 = icmp ne ptr %210, null
  br i1 %211, label %212, label %219

212:                                              ; preds = %209
  call void @llvm.lifetime.start.p0(i64 8, ptr %16) #9
  store ptr null, ptr %16, align 8, !tbaa !26
  %213 = load ptr, ptr %6, align 8, !tbaa !26
  %214 = call ptr @strrchr(ptr noundef %213, i32 noundef 47) #11
  store ptr %214, ptr %16, align 8, !tbaa !26
  %215 = load ptr, ptr %16, align 8, !tbaa !26
  %216 = getelementptr inbounds nuw i8, ptr %215, i32 1
  store ptr %216, ptr %16, align 8, !tbaa !26
  store i8 0, ptr %216, align 1, !tbaa !29
  %217 = load ptr, ptr %6, align 8, !tbaa !26
  %218 = load ptr, ptr %5, align 8, !tbaa !27
  store ptr %217, ptr %218, align 8, !tbaa !26
  call void @llvm.lifetime.end.p0(i64 8, ptr %16) #9
  br label %219

219:                                              ; preds = %212, %209
  br label %220

220:                                              ; preds = %219, %206, %55
  %221 = load ptr, ptr %7, align 8, !tbaa !26
  %222 = icmp ne ptr %221, null
  br i1 %222, label %223, label %226

223:                                              ; preds = %220
  %224 = load ptr, ptr %7, align 8, !tbaa !26
  %225 = call ptr @H5MM_xfree(ptr noundef %224)
  br label %226

226:                                              ; preds = %223, %220
  %227 = load ptr, ptr %8, align 8, !tbaa !26
  %228 = icmp ne ptr %227, null
  br i1 %228, label %229, label %232

229:                                              ; preds = %226
  %230 = load ptr, ptr %8, align 8, !tbaa !26
  %231 = call ptr @H5MM_xfree(ptr noundef %230)
  br label %232

232:                                              ; preds = %229, %226
  br label %233

233:                                              ; preds = %232, %23
  %234 = load i32, ptr %9, align 4, !tbaa !3
  store i32 %234, ptr %3, align 4
  store i32 1, ptr %15, align 4
  br label %235

235:                                              ; preds = %233, %206
  call void @llvm.lifetime.end.p0(i64 1, ptr %10) #9
  call void @llvm.lifetime.end.p0(i64 4, ptr %9) #9
  call void @llvm.lifetime.end.p0(i64 8, ptr %8) #9
  call void @llvm.lifetime.end.p0(i64 8, ptr %7) #9
  call void @llvm.lifetime.end.p0(i64 8, ptr %6) #9
  %236 = load i32, ptr %3, align 4
  ret i32 %236
}