; Function Attrs: nounwind uwtable
define range(i32 -1, 1) i32 @H5_build_extpath(ptr noundef %0, ptr noundef writeonly captures(none) %1) local_unnamed_addr #0 {
  %3 = load i8, ptr @H5_init_g, align 1, !tbaa !11, !range !13, !noundef !14
  %4 = trunc nuw i8 %3 to i1
  %5 = load i8, ptr @H5_libterm_g, align 1, !range !13
  %6 = trunc nuw i8 %5 to i1
  %7 = xor i1 %6, true
  %8 = select i1 %4, i1 true, i1 %7
  br i1 %8, label %9, label %72, !prof !15

9:                                                ; preds = %2
  store ptr null, ptr %1, align 8, !tbaa !21
  %10 = load i8, ptr %0, align 1, !tbaa !22
  %11 = icmp eq i8 %10, 47
  br i1 %11, label %12, label %18

12:                                               ; preds = %9
  %13 = tail call noalias ptr @H5MM_strdup(ptr noundef nonnull %0) #15
  %14 = icmp eq ptr %13, null
  br i1 %14, label %.thread107, label %.thread76

.thread107:                                       ; preds = %12
  %15 = load i64, ptr @H5E_INTERNAL_g, align 8, !tbaa !16
  %16 = load i64, ptr @H5E_NOSPACE_g, align 8, !tbaa !16
  %17 = tail call i32 (ptr, ptr, i32, i64, i64, ptr, ...) @H5E_printf_stack(ptr noundef nonnull @.str, ptr noundef nonnull @__func__.H5_build_extpath, i32 noundef 631, i64 noundef %15, i64 noundef %16, ptr noundef nonnull @.str.2) #15
  br label %72

18:                                               ; preds = %9
  %19 = tail call noalias dereferenceable_or_null(1024) ptr @malloc(i64 noundef 1024) #16
  %20 = icmp eq ptr %19, null
  br i1 %20, label %.thread120, label %24

.thread120:                                       ; preds = %18
  %21 = load i64, ptr @H5E_INTERNAL_g, align 8, !tbaa !16
  %22 = load i64, ptr @H5E_NOSPACE_g, align 8, !tbaa !16
  %23 = tail call i32 (ptr, ptr, i32, i64, i64, ptr, ...) @H5E_printf_stack(ptr noundef nonnull @.str, ptr noundef nonnull @__func__.H5_build_extpath, i32 noundef 640, i64 noundef %21, i64 noundef %22, ptr noundef nonnull @.str.2) #15
  br label %72

24:                                               ; preds = %18
  %25 = tail call i64 @strlen(ptr noundef nonnull dereferenceable(1) %0) #17
  %26 = add i64 %25, 1
  %27 = tail call noalias ptr @malloc(i64 noundef %26) #16
  %28 = icmp eq ptr %27, null
  br i1 %28, label %29, label %33

29:                                               ; preds = %24
  %30 = load i64, ptr @H5E_INTERNAL_g, align 8, !tbaa !16
  %31 = load i64, ptr @H5E_NOSPACE_g, align 8, !tbaa !16
  %32 = tail call i32 (ptr, ptr, i32, i64, i64, ptr, ...) @H5E_printf_stack(ptr noundef nonnull @.str, ptr noundef nonnull @__func__.H5_build_extpath, i32 noundef 643, i64 noundef %30, i64 noundef %31, ptr noundef nonnull @.str.2) #15
  br label %.thread99

33:                                               ; preds = %24
  %34 = tail call ptr @getcwd(ptr noundef nonnull %19, i64 noundef 1024) #15
  %35 = tail call ptr @strncpy(ptr noundef nonnull %27, ptr noundef nonnull %0, i64 noundef %26) #15
  %.not = icmp eq ptr %34, null
  br i1 %.not, label %.thread99, label %36

36:                                               ; preds = %33
  %37 = tail call i64 @strlen(ptr noundef nonnull dereferenceable(1) %19) #17
  %38 = icmp eq i64 %37, 0
  br i1 %38, label %39, label %43

39:                                               ; preds = %36
  %40 = load i64, ptr @H5E_INTERNAL_g, align 8, !tbaa !16
  %41 = load i64, ptr @H5E_BADVALUE_g, align 8, !tbaa !16
  %42 = tail call i32 (ptr, ptr, i32, i64, i64, ptr, ...) @H5E_printf_stack(ptr noundef nonnull @.str, ptr noundef nonnull @__func__.H5_build_extpath, i32 noundef 677, i64 noundef %40, i64 noundef %41, ptr noundef nonnull @.str.3) #15
  br label %.thread99

43:                                               ; preds = %36
  %44 = tail call i64 @strlen(ptr noundef nonnull dereferenceable(1) %27) #17
  %45 = add i64 %44, %37
  %46 = add i64 %45, 2
  %47 = tail call noalias ptr @malloc(i64 noundef %46) #16
  %48 = icmp eq ptr %47, null
  br i1 %48, label %49, label %53

49:                                               ; preds = %43
  %50 = load i64, ptr @H5E_INTERNAL_g, align 8, !tbaa !16
  %51 = load i64, ptr @H5E_NOSPACE_g, align 8, !tbaa !16
  %52 = tail call i32 (ptr, ptr, i32, i64, i64, ptr, ...) @H5E_printf_stack(ptr noundef nonnull @.str, ptr noundef nonnull @__func__.H5_build_extpath, i32 noundef 680, i64 noundef %50, i64 noundef %51, ptr noundef nonnull @.str.2) #15
  br label %.thread99

53:                                               ; preds = %43
  %54 = tail call ptr @strncpy(ptr noundef nonnull %47, ptr noundef nonnull %19, i64 noundef %46) #15
  %55 = getelementptr i8, ptr %47, i64 %45
  %56 = getelementptr i8, ptr %55, i64 1
  store i8 0, ptr %56, align 1, !tbaa !22
  %57 = getelementptr i8, ptr %19, i64 %37
  %58 = getelementptr i8, ptr %57, i64 -1
  %59 = load i8, ptr %58, align 1, !tbaa !22
  %60 = icmp eq i8 %59, 47
  br i1 %60, label %64, label %61

61:                                               ; preds = %53
  %.neg = xor i64 %37, -1
  %62 = add i64 %46, %.neg
  %63 = tail call ptr @strncat(ptr noundef nonnull dereferenceable(1) %47, ptr noundef nonnull @.str.4, i64 noundef %62) #15
  br label %64

64:                                               ; preds = %61, %53
  %65 = tail call ptr @strncat(ptr noundef nonnull dereferenceable(1) %47, ptr noundef nonnull %27, i64 noundef %44) #15
  br label %.thread76

.thread76:                                        ; preds = %64, %12
  %.152.ph = phi ptr [ %27, %64 ], [ null, %12 ]
  %.150.ph = phi ptr [ %19, %64 ], [ null, %12 ]
  %.047.ph = phi ptr [ %47, %64 ], [ %13, %12 ]
  %66 = tail call ptr @strrchr(ptr noundef nonnull dereferenceable(1) %.047.ph, i32 noundef 47) #17
  %67 = getelementptr inbounds nuw i8, ptr %66, i64 1
  store i8 0, ptr %67, align 1, !tbaa !22
  store ptr %.047.ph, ptr %1, align 8, !tbaa !21
  %.not67 = icmp eq ptr %.150.ph, null
  br i1 %.not67, label %69, label %.thread99

.thread99:                                        ; preds = %49, %39, %29, %33, %.thread76
  %.049106 = phi ptr [ %.150.ph, %.thread76 ], [ %19, %33 ], [ %19, %29 ], [ %19, %39 ], [ %19, %49 ]
  %.051105 = phi ptr [ %.152.ph, %.thread76 ], [ %27, %33 ], [ null, %29 ], [ %27, %39 ], [ %27, %49 ]
  %.155104 = phi i32 [ 0, %.thread76 ], [ 0, %33 ], [ -1, %29 ], [ -1, %39 ], [ -1, %49 ]
  %68 = tail call ptr @H5MM_xfree(ptr noundef nonnull %.049106) #15
  br label %69

69:                                               ; preds = %.thread99, %.thread76
  %.05198 = phi ptr [ %.051105, %.thread99 ], [ %.152.ph, %.thread76 ]
  %.15597 = phi i32 [ %.155104, %.thread99 ], [ 0, %.thread76 ]
  %.not68 = icmp eq ptr %.05198, null
  br i1 %.not68, label %72, label %70

70:                                               ; preds = %69
  %71 = tail call ptr @H5MM_xfree(ptr noundef nonnull %.05198) #15
  br label %72

72:                                               ; preds = %.thread120, %.thread107, %2, %70, %69
  %.0 = phi i32 [ %.15597, %70 ], [ %.15597, %69 ], [ 0, %2 ], [ -1, %.thread107 ], [ -1, %.thread120 ]
  ret i32 %.0
}